; Function Attrs: mustprogress uwtable
define hidden noundef zeroext i1 @_ZN4cvc58internal6theory7strings18SequenceProperties13isWellFoundedENS0_8TypeNodeE(ptr noundef readonly captures(none) %0) local_unnamed_addr #3 align 2 personality ptr @__gxx_personality_v0 {
  %2 = alloca %"class.cvc5::internal::TypeNode", align 8
  call void @llvm.lifetime.start.p0(i64 8, ptr nonnull %2) #17
  tail call void @llvm.experimental.noalias.scope.decl(metadata !275)
  %3 = load ptr, ptr %0, align 8, !tbaa !3, !noalias !275
  %4 = getelementptr inbounds nuw i8, ptr %3, i64 8
  %5 = load i64, ptr %4, align 8, !noalias !275
  %6 = trunc i64 %5 to i32
  %7 = and i32 %6, 1023
  %8 = icmp eq i32 %7, 1023
  %9 = select i1 %8, i32 -1, i32 %7
  %10 = tail call noundef i32 @_ZN4cvc58internal4kind10metaKindOfENS1_6Kind_tE(i32 noundef %9), !noalias !275
  %11 = icmp eq i32 %10, 2
  %12 = getelementptr inbounds nuw i8, ptr %3, i64 24
  %13 = zext i1 %11 to i64
  %14 = getelementptr inbounds nuw [0 x ptr], ptr %12, i64 0, i64 %13
  %15 = load ptr, ptr %14, align 8, !tbaa !17, !noalias !275
  store ptr %15, ptr %2, align 8, !tbaa !3, !alias.scope !275
  %16 = load i64, ptr %15, align 8, !noalias !275
  %17 = lshr i64 %16, 40
  %18 = trunc nuw nsw i64 %17 to i32
  %19 = and i32 %18, 1048575
  %20 = icmp samesign ult i32 %19, 1048574
  br i1 %20, label %21, label %26, !prof !14

21:                                               ; preds = %1
  %22 = add i64 %16, 1099511627776
  %23 = and i64 %22, 1152920405095219200
  %24 = and i64 %16, -1152920405095219201
  %25 = or disjoint i64 %23, %24
  store i64 %25, ptr %15, align 8, !noalias !275
  br label %_ZNK4cvc58internal8TypeNodeixEi.exit

26:                                               ; preds = %1
  %27 = icmp eq i32 %19, 1048574
  br i1 %27, label %28, label %_ZNK4cvc58internal8TypeNodeixEi.exit, !prof !15

28:                                               ; preds = %26
  %29 = or i64 %16, 1152920405095219200
  store i64 %29, ptr %15, align 8, !noalias !275
  tail call void @_ZN4cvc58internal4expr9NodeValue20markRefCountMaxedOutEv(ptr noundef nonnull align 8 dereferenceable(24) %15), !noalias !275
  br label %_ZNK4cvc58internal8TypeNodeixEi.exit

_ZNK4cvc58internal8TypeNodeixEi.exit:             ; preds = %21, %26, %28
  %30 = invoke noundef zeroext i1 @_ZNK4cvc58internal8TypeNode13isWellFoundedEv(ptr noundef nonnull align 8 dereferenceable(8) %2)
          to label %31 unwind label %45

31:                                               ; preds = %_ZNK4cvc58internal8TypeNodeixEi.exit
  %32 = load ptr, ptr %2, align 8, !tbaa !3
  %33 = load i64, ptr %32, align 8
  %34 = and i64 %33, 1152920405095219200
  %.not.i.i = icmp eq i64 %34, 1152920405095219200
  br i1 %.not.i.i, label %_ZN4cvc58internal8TypeNodeD2Ev.exit, label %35, !prof !15

35:                                               ; preds = %31
  %36 = add i64 %33, 1152920405095219200
  %37 = and i64 %36, 1152920405095219200
  %38 = and i64 %33, -1152920405095219201
  %39 = or disjoint i64 %37, %38
  store i64 %39, ptr %32, align 8
  %40 = icmp eq i64 %37, 0
  br i1 %40, label %41, label %_ZN4cvc58internal8TypeNodeD2Ev.exit, !prof !15

41:                                               ; preds = %35
  invoke void @_ZN4cvc58internal4expr9NodeValue15markForDeletionEv(ptr noundef nonnull align 8 dereferenceable(24) %32)
          to label %_ZN4cvc58internal8TypeNodeD2Ev.exit unwind label %42

42:                                               ; preds = %41
  %43 = landingpad { ptr, i32 }
          catch ptr null
  %44 = extractvalue { ptr, i32 } %43, 0
  call void @__clang_call_terminate(ptr %44) #19
  unreachable

_ZN4cvc58internal8TypeNodeD2Ev.exit:              ; preds = %31, %35, %41
  call void @llvm.lifetime.end.p0(i64 8, ptr nonnull %2) #17
  ret i1 %30

45:                                               ; preds = %_ZNK4cvc58internal8TypeNodeixEi.exit
  %46 = landingpad { ptr, i32 }
          cleanup
  call void @_ZN4cvc58internal8TypeNodeD2Ev(ptr noundef nonnull align 8 dereferenceable(8) %2) #17
  call void @llvm.lifetime.end.p0(i64 8, ptr nonnull %2) #17
  resume { ptr, i32 } %46
}